target datalayout = "e-m:e-p270:32:32-p271:32:32-p272:64:64-i64:64-i128:128-f80:128-n8:16:32:64-S128"
target triple = "x86_64-pc-linux-gnu"

%struct.ossl_qtx_st = type { ptr, ptr, %struct.ossl_qrl_enc_level_set_st, ptr, ptr, ptr, i64, %struct.ossl_list_st_txe, %struct.ossl_list_st_txe, i64, i64, ptr, i64, i64, i64, ptr, ptr, ptr, ptr, ptr, ptr }
%struct.ossl_qrl_enc_level_set_st = type { [4 x %struct.ossl_qrl_enc_level_st] }
%struct.ossl_qrl_enc_level_st = type { %struct.quic_hdr_protector_st, ptr, [2 x ptr], ptr, ptr, i64, i64, i32, i32, i8, i8, [2 x [16 x i8]], [64 x i8] }
%struct.quic_hdr_protector_st = type { ptr, ptr, ptr, ptr, i32 }
%struct.ossl_list_st_txe = type { ptr, ptr, i64 }
%struct.txe_st = type { %struct.anon, i64, i64, %union.bio_addr_st, %union.bio_addr_st }
%struct.anon = type { ptr, ptr }
%union.bio_addr_st = type { %struct.sockaddr_in6, [84 x i8] }
%struct.sockaddr_in6 = type { i16, i16, i32, %struct.in6_addr, i32 }
%struct.in6_addr = type { %union.anon }
%union.anon = type { [4 x i32] }

; Function Attrs: nounwind uwtable
define internal void @qtx_add_to_pending(ptr noundef %0, ptr noundef %1) #0 {
  %3 = alloca ptr, align 8
  %4 = alloca ptr, align 8
  store ptr %0, ptr %3, align 8, !tbaa !14
  store ptr %1, ptr %4, align 8, !tbaa !39
  %5 = load ptr, ptr %3, align 8, !tbaa !14
  %6 = getelementptr inbounds nuw %struct.ossl_qtx_st, ptr %5, i32 0, i32 8
  %7 = load ptr, ptr %4, align 8, !tbaa !39
  call void @ossl_list_txe_insert_tail(ptr noundef %6, ptr noundef %7)
  %8 = load ptr, ptr %3, align 8, !tbaa !14
  %9 = getelementptr inbounds nuw %struct.ossl_qtx_st, ptr %8, i32 0, i32 9
  %10 = load i64, ptr %9, align 8, !tbaa !87
  %11 = add i64 %10, 1
  store i64 %11, ptr %9, align 8, !tbaa !87
  %12 = load ptr, ptr %4, align 8, !tbaa !39
  %13 = getelementptr inbounds nuw %struct.txe_st, ptr %12, i32 0, i32 1
  %14 = load i64, ptr %13, align 8, !tbaa !66
  %15 = load ptr, ptr %3, align 8, !tbaa !14
  %16 = getelementptr inbounds nuw %struct.ossl_qtx_st, ptr %15, i32 0, i32 10
  %17 = load i64, ptr %16, align 8, !tbaa !88
  %18 = add i64 %17, %14
  store i64 %18, ptr %16, align 8, !tbaa !88
  ret void
}

; Function Attrs: inlinehint nounwind uwtable
define internal void @ossl_list_txe_insert_tail(ptr noundef %0, ptr noundef %1) #3 {
  %3 = alloca ptr, align 8
  %4 = alloca ptr, align 8
  store ptr %0, ptr %3, align 8, !tbaa !37
  store ptr %1, ptr %4, align 8, !tbaa !39
  %5 = load ptr, ptr %3, align 8, !tbaa !37
  %6 = getelementptr inbounds nuw %struct.ossl_list_st_txe, ptr %5, i32 0, i32 1
  %7 = load ptr, ptr %6, align 8, !tbaa !82
  %8 = icmp ne ptr %7, null
  br i1 %8, label %9, label %16

9:                                                ; preds = %2
  %10 = load ptr, ptr %4, align 8, !tbaa !39
  %11 = load ptr, ptr %3, align 8, !tbaa !37
  %12 = getelementptr inbounds nuw %struct.ossl_list_st_txe, ptr %11, i32 0, i32 1
  %13 = load ptr, ptr %12, align 8, !tbaa !82
  %14 = getelementptr inbounds nuw %struct.txe_st, ptr %13, i32 0, i32 0
  %15 = getelementptr inbounds nuw %struct.anon, ptr %14, i32 0, i32 0
  store ptr %10, ptr %15, align 8, !tbaa !83
  br label %16

16:                                               ; preds = %9, %2
  %17 = load ptr, ptr %3, align 8, !tbaa !37
  %18 = getelementptr inbounds nuw %struct.ossl_list_st_txe, ptr %17, i32 0, i32 1
  %19 = load ptr, ptr %18, align 8, !tbaa !82
  %20 = load ptr, ptr %4, align 8, !tbaa !39
  %21 = getelementptr inbounds nuw %struct.txe_st, ptr %20, i32 0, i32 0
  %22 = getelementptr inbounds nuw %struct.anon, ptr %21, i32 0, i32 1
  store ptr %19, ptr %22, align 8, !tbaa !84
  %23 = load ptr, ptr %4, align 8, !tbaa !39
  %24 = getelementptr inbounds nuw %struct.txe_st, ptr %23, i32 0, i32 0
  %25 = getelementptr inbounds nuw %struct.anon, ptr %24, i32 0, i32 0
  store ptr null, ptr %25, align 8, !tbaa !83
  %26 = load ptr, ptr %4, align 8, !tbaa !39
  %27 = load ptr, ptr %3, align 8, !tbaa !37
  %28 = getelementptr inbounds nuw %struct.ossl_list_st_txe, ptr %27, i32 0, i32 1
  store ptr %26, ptr %28, align 8, !tbaa !82
  %29 = load ptr, ptr %3, align 8, !tbaa !37
  %30 = getelementptr inbounds nuw %struct.ossl_list_st_txe, ptr %29, i32 0, i32 0
  %31 = load ptr, ptr %30, align 8, !tbaa !85
  %32 = icmp eq ptr %31, null
  br i1 %32, label %33, label %37

33:                                               ; preds = %16
  %34 = load ptr, ptr %4, align 8, !tbaa !39
  %35 = load ptr, ptr %3, align 8, !tbaa !37
  %36 = getelementptr inbounds nuw %struct.ossl_list_st_txe, ptr %35, i32 0, i32 0
  store ptr %34, ptr %36, align 8, !tbaa !85
  br label %37

37:                                               ; preds = %33, %16
  %38 = load ptr, ptr %3, align 8, !tbaa !37
  %39 = getelementptr inbounds nuw %struct.ossl_list_st_txe, ptr %38, i32 0, i32 2
  %40 = load i64, ptr %39, align 8, !tbaa !86
  %41 = add i64 %40, 1
  store i64 %41, ptr %39, align 8, !tbaa !86
  ret void
}

; Function Attrs: nounwind uwtable
define void @ossl_qtx_finish_dgram(ptr noundef %0) #0 {
  %2 = alloca ptr, align 8
  %3 = alloca ptr, align 8
  %4 = alloca i32, align 4
  store ptr %0, ptr %2, align 8, !tbaa !14
  call void @llvm.lifetime.start.p0(i64 8, ptr %3) #8
  %5 = load ptr, ptr %2, align 8, !tbaa !14
  %6 = getelementptr inbounds nuw %struct.ossl_qtx_st, ptr %5, i32 0, i32 11
  %7 = load ptr, ptr %6, align 8, !tbaa !32
  store ptr %7, ptr %3, align 8, !tbaa !39
  %8 = load ptr, ptr %3, align 8, !tbaa !39
  %9 = icmp eq ptr %8, null
  br i1 %9, label %10, label %11

10:                                               ; preds = %1
  store i32 1, ptr %4, align 4
  br label %32

11:                                               ; preds = %1
  %12 = load ptr, ptr %3, align 8, !tbaa !39
  %13 = getelementptr inbounds nuw %struct.txe_st, ptr %12, i32 0, i32 1
  %14 = load i64, ptr %13, align 8, !tbaa !66
  %15 = icmp eq i64 %14, 0
  br i1 %15, label %16, label %20

16:                                               ; preds = %11
  %17 = load ptr, ptr %2, align 8, !tbaa !14
  %18 = getelementptr inbounds nuw %struct.ossl_qtx_st, ptr %17, i32 0, i32 7
  %19 = load ptr, ptr %3, align 8, !tbaa !39
  call void @ossl_list_txe_insert_tail(ptr noundef %18, ptr noundef %19)
  br label %23

20:                                               ; preds = %11
  %21 = load ptr, ptr %2, align 8, !tbaa !14
  %22 = load ptr, ptr %3, align 8, !tbaa !39
  call void @qtx_add_to_pending(ptr noundef %21, ptr noundef %22)
  br label %23

23:                                               ; preds = %20, %16
  %24 = load ptr, ptr %2, align 8, !tbaa !14
  %25 = getelementptr inbounds nuw %struct.ossl_qtx_st, ptr %24, i32 0, i32 11
  store ptr null, ptr %25, align 8, !tbaa !32
  %26 = load ptr, ptr %2, align 8, !tbaa !14
  %27 = getelementptr inbounds nuw %struct.ossl_qtx_st, ptr %26, i32 0, i32 12
  store i64 0, ptr %27, align 8, !tbaa !73
  %28 = load ptr, ptr %2, align 8, !tbaa !14
  %29 = getelementptr inbounds nuw %struct.ossl_qtx_st, ptr %28, i32 0, i32 14
  %30 = load i64, ptr %29, align 8, !tbaa !74
  %31 = add i64 %30, 1
  store i64 %31, ptr %29, align 8, !tbaa !74
  store i32 0, ptr %4, align 4
  br label %32

32:                                               ; preds = %23, %10
  call void @llvm.lifetime.end.p0(i64 8, ptr %3) #8
  %33 = load i32, ptr %4, align 4
  switch i32 %33, label %35 [
    i32 0, label %34
    i32 1, label %34
  ]

34:                                               ; preds = %32, %32
  ret void

35:                                               ; preds = %32
  unreachable
}