; Function Attrs: mustprogress nofree norecurse nosync nounwind willreturn memory(readwrite, inaccessiblemem: none) uwtable
define void @ossl_qtx_finish_dgram(ptr noundef captures(none) %0) local_unnamed_addr #4 {
  %2 = getelementptr inbounds nuw i8, ptr %0, i64 944
  %3 = load ptr, ptr %2, align 8, !tbaa !34
  %4 = icmp eq ptr %3, null
  br i1 %4, label %41, label %5

5:                                                ; preds = %1
  %6 = getelementptr inbounds nuw i8, ptr %3, i64 16
  %7 = load i64, ptr %6, align 8, !tbaa !53
  %8 = icmp eq i64 %7, 0
  br i1 %8, label %9, label %19

9:                                                ; preds = %5
  %10 = getelementptr inbounds nuw i8, ptr %0, i64 880
  %11 = getelementptr inbounds nuw i8, ptr %0, i64 888
  %12 = load ptr, ptr %11, align 8, !tbaa !54
  %.not.i = icmp eq ptr %12, null
  br i1 %.not.i, label %14, label %13

13:                                               ; preds = %9
  store ptr %3, ptr %12, align 8, !tbaa !29
  br label %14

14:                                               ; preds = %13, %9
  %15 = getelementptr inbounds nuw i8, ptr %3, i64 8
  store ptr %12, ptr %15, align 8, !tbaa !55
  store ptr null, ptr %3, align 8, !tbaa !29
  store ptr %3, ptr %11, align 8, !tbaa !54
  %16 = load ptr, ptr %10, align 8, !tbaa !28
  %17 = icmp eq ptr %16, null
  br i1 %17, label %18, label %ossl_list_txe_insert_tail.exit

18:                                               ; preds = %14
  store ptr %3, ptr %10, align 8, !tbaa !28
  br label %ossl_list_txe_insert_tail.exit

19:                                               ; preds = %5
  %20 = getelementptr inbounds nuw i8, ptr %0, i64 904
  %21 = getelementptr inbounds nuw i8, ptr %0, i64 912
  %22 = load ptr, ptr %21, align 8, !tbaa !54
  %.not.i.i = icmp eq ptr %22, null
  br i1 %.not.i.i, label %24, label %23

23:                                               ; preds = %19
  store ptr %3, ptr %22, align 8, !tbaa !29
  br label %24

24:                                               ; preds = %23, %19
  %25 = getelementptr inbounds nuw i8, ptr %3, i64 8
  store ptr %22, ptr %25, align 8, !tbaa !55
  store ptr null, ptr %3, align 8, !tbaa !29
  store ptr %3, ptr %21, align 8, !tbaa !54
  %26 = load ptr, ptr %20, align 8, !tbaa !28
  %27 = icmp eq ptr %26, null
  br i1 %27, label %28, label %qtx_add_to_pending.exit

28:                                               ; preds = %24
  store ptr %3, ptr %20, align 8, !tbaa !28
  br label %qtx_add_to_pending.exit

qtx_add_to_pending.exit:                          ; preds = %24, %28
  %29 = getelementptr inbounds nuw i8, ptr %0, i64 920
  %30 = load i64, ptr %29, align 8, !tbaa !56
  %31 = add i64 %30, 1
  store i64 %31, ptr %29, align 8, !tbaa !56
  %32 = getelementptr inbounds nuw i8, ptr %0, i64 928
  %33 = load i64, ptr %32, align 8, !tbaa !57
  %34 = add i64 %33, 1
  store i64 %34, ptr %32, align 8, !tbaa !57
  br label %ossl_list_txe_insert_tail.exit

ossl_list_txe_insert_tail.exit:                   ; preds = %18, %14, %qtx_add_to_pending.exit
  %.sink13 = phi i64 [ 936, %qtx_add_to_pending.exit ], [ 896, %14 ], [ 896, %18 ]
  %.sink12 = phi i64 [ %7, %qtx_add_to_pending.exit ], [ 1, %14 ], [ 1, %18 ]
  %35 = getelementptr inbounds nuw i8, ptr %0, i64 %.sink13
  %36 = load i64, ptr %35, align 8, !tbaa !46
  %37 = add i64 %36, %.sink12
  store i64 %37, ptr %35, align 8, !tbaa !46
  %38 = getelementptr inbounds nuw i8, ptr %0, i64 968
  tail call void @llvm.memset.p0.i64(ptr noundef nonnull align 8 dereferenceable(16) %2, i8 0, i64 16, i1 false)
  %39 = load i64, ptr %38, align 8, !tbaa !58
  %40 = add i64 %39, 1
  store i64 %40, ptr %38, align 8, !tbaa !58
  br label %41

41:                                               ; preds = %1, %ossl_list_txe_insert_tail.exit
  ret void
}